target datalayout = "e-m:e-p270:32:32-p271:32:32-p272:64:64-i64:64-i128:128-f80:128-n8:16:32:64-S128"
target triple = "x86_64-pc-linux-gnu"

%"struct.duckdb_zstd::buffer_s" = type { ptr, i64 }
%"struct.duckdb_zstd::range_t" = type { ptr, i64 }
%"struct.duckdb_zstd::ZSTD_customMem" = type { ptr, ptr, ptr }
%"struct.duckdb_zstd::ZSTDMT_CCtx_s" = type { ptr, ptr, ptr, ptr, ptr, %"struct.duckdb_zstd::ZSTD_CCtx_params_s", i64, i64, i32, %"struct.duckdb_zstd::inBuff_t", %"struct.duckdb_zstd::roundBuff_t", %"struct.duckdb_zstd::serialState_t", %"struct.duckdb_zstd::rsyncState_t", i32, i32, i32, i32, i32, i64, i64, i64, %"struct.duckdb_zstd::ZSTD_customMem", ptr, ptr, i8 }
%"struct.duckdb_zstd::ZSTD_CCtx_params_s" = type { i32, %"struct.duckdb_zstd::ZSTD_compressionParameters", %"struct.duckdb_zstd::ZSTD_frameParameters", i32, i32, i64, i32, i32, i32, i32, i64, i32, i32, %"struct.duckdb_zstd::ldmParams_t", i32, i32, i32, i32, i32, i32, i32, i32, %"struct.duckdb_zstd::ZSTD_customMem", i32, i32, ptr, ptr, i64, i32 }
%"struct.duckdb_zstd::ZSTD_compressionParameters" = type { i32, i32, i32, i32, i32, i32, i32 }
%"struct.duckdb_zstd::ZSTD_frameParameters" = type { i32, i32, i32 }
%"struct.duckdb_zstd::ldmParams_t" = type { i32, i32, i32, i32, i32, i32 }
%"struct.duckdb_zstd::inBuff_t" = type { %"struct.duckdb_zstd::range_t", %"struct.duckdb_zstd::buffer_s", i64 }
%"struct.duckdb_zstd::roundBuff_t" = type { ptr, i64, i64 }
%"struct.duckdb_zstd::serialState_t" = type { i32, i32, %"struct.duckdb_zstd::ZSTD_CCtx_params_s", %"struct.duckdb_zstd::ldmState_t", %"struct.duckdb_zstd::XXH64_state_s", i32, i32, i32, %"struct.duckdb_zstd::ZSTD_window_t" }
%"struct.duckdb_zstd::ldmState_t" = type { %"struct.duckdb_zstd::ZSTD_window_t", ptr, i32, ptr, [64 x i64], [64 x %"struct.duckdb_zstd::ldmMatchCandidate_t"] }
%"struct.duckdb_zstd::ldmMatchCandidate_t" = type { ptr, i32, i32, ptr }
%"struct.duckdb_zstd::XXH64_state_s" = type { i64, i64, i64, i64, i64, [4 x i64], i32, [2 x i32] }
%"struct.duckdb_zstd::ZSTD_window_t" = type { ptr, ptr, ptr, i32, i32, i32 }
%"struct.duckdb_zstd::rsyncState_t" = type { i64, i64, i64 }

; Function Attrs: mustprogress uwtable
define void @_ZN11duckdb_zstd37ZSTDMT_updateCParams_whileCompressingEPNS_13ZSTDMT_CCtx_sEPKNS_18ZSTD_CCtx_params_sE(ptr noundef %0, ptr noundef %1) #1 {
  %3 = alloca ptr, align 8
  %4 = alloca ptr, align 8
  %5 = alloca i32, align 4
  %6 = alloca i32, align 4
  %7 = alloca %"struct.duckdb_zstd::ZSTD_compressionParameters", align 4
  store ptr %0, ptr %3, align 8, !tbaa !10
  store ptr %1, ptr %4, align 8, !tbaa !80
  call void @llvm.lifetime.start.p0(i64 4, ptr %5) #12
  %8 = load ptr, ptr %3, align 8, !tbaa !10
  %9 = getelementptr inbounds nuw %"struct.duckdb_zstd::ZSTDMT_CCtx_s", ptr %8, i32 0, i32 5
  %10 = getelementptr inbounds nuw %"struct.duckdb_zstd::ZSTD_CCtx_params_s", ptr %9, i32 0, i32 1
  %11 = getelementptr inbounds nuw %"struct.duckdb_zstd::ZSTD_compressionParameters", ptr %10, i32 0, i32 0
  %12 = load i32, ptr %11, align 4, !tbaa !82
  store i32 %12, ptr %5, align 4, !tbaa !3
  call void @llvm.lifetime.start.p0(i64 4, ptr %6) #12
  %13 = load ptr, ptr %4, align 8, !tbaa !80
  %14 = getelementptr inbounds nuw %"struct.duckdb_zstd::ZSTD_CCtx_params_s", ptr %13, i32 0, i32 3
  %15 = load i32, ptr %14, align 4, !tbaa !83
  store i32 %15, ptr %6, align 4, !tbaa !3
  br label %16

16:                                               ; preds = %2
  br label %17

17:                                               ; preds = %16
  br label %18

18:                                               ; preds = %17
  %19 = load i32, ptr %6, align 4, !tbaa !3
  %20 = load ptr, ptr %3, align 8, !tbaa !10
  %21 = getelementptr inbounds nuw %"struct.duckdb_zstd::ZSTDMT_CCtx_s", ptr %20, i32 0, i32 5
  %22 = getelementptr inbounds nuw %"struct.duckdb_zstd::ZSTD_CCtx_params_s", ptr %21, i32 0, i32 3
  store i32 %19, ptr %22, align 4, !tbaa !84
  call void @llvm.lifetime.start.p0(i64 28, ptr %7) #12
  %23 = load ptr, ptr %4, align 8, !tbaa !80
  call void @_ZN11duckdb_zstd29ZSTD_getCParamsFromCCtxParamsEPKNS_18ZSTD_CCtx_params_sEmmNS_17ZSTD_cParamMode_eE(ptr dead_on_unwind writable sret(%"struct.duckdb_zstd::ZSTD_compressionParameters") align 4 %7, ptr noundef %23, i64 noundef -1, i64 noundef 0, i32 noundef 0)
  %24 = load i32, ptr %5, align 4, !tbaa !3
  %25 = getelementptr inbounds nuw %"struct.duckdb_zstd::ZSTD_compressionParameters", ptr %7, i32 0, i32 0
  store i32 %24, ptr %25, align 4, !tbaa !85
  %26 = load ptr, ptr %3, align 8, !tbaa !10
  %27 = getelementptr inbounds nuw %"struct.duckdb_zstd::ZSTDMT_CCtx_s", ptr %26, i32 0, i32 5
  %28 = getelementptr inbounds nuw %"struct.duckdb_zstd::ZSTD_CCtx_params_s", ptr %27, i32 0, i32 1
  call void @llvm.memcpy.p0.p0.i64(ptr align 4 %28, ptr align 4 %7, i64 28, i1 false), !tbaa.struct !86
  call void @llvm.lifetime.end.p0(i64 28, ptr %7) #12
  call void @llvm.lifetime.end.p0(i64 4, ptr %6) #12
  call void @llvm.lifetime.end.p0(i64 4, ptr %5) #12
  ret void
}