; Function Attrs: mustprogress uwtable
define void @_ZN11duckdb_zstd37ZSTDMT_updateCParams_whileCompressingEPNS_13ZSTDMT_CCtx_sEPKNS_18ZSTD_CCtx_params_sE(ptr noundef captures(none) initializes((48, 72), (84, 88)) %0, ptr noundef %1) local_unnamed_addr #1 {
  %3 = alloca %"struct.duckdb_zstd::ZSTD_compressionParameters", align 4
  %4 = getelementptr inbounds nuw i8, ptr %0, i64 44
  %5 = load i32, ptr %4, align 4, !tbaa !70
  %6 = getelementptr inbounds nuw i8, ptr %1, i64 44
  %7 = load i32, ptr %6, align 4, !tbaa !71
  %8 = getelementptr inbounds nuw i8, ptr %0, i64 84
  store i32 %7, ptr %8, align 4, !tbaa !72
  call void @llvm.lifetime.start.p0(i64 28, ptr nonnull %3) #16
  call void @_ZN11duckdb_zstd29ZSTD_getCParamsFromCCtxParamsEPKNS_18ZSTD_CCtx_params_sEmmNS_17ZSTD_cParamMode_eE(ptr dead_on_unwind nonnull writable sret(%"struct.duckdb_zstd::ZSTD_compressionParameters") align 4 %3, ptr noundef %1, i64 noundef -1, i64 noundef 0, i32 noundef 0)
  store i32 %5, ptr %3, align 4, !tbaa !73
  call void @llvm.memcpy.p0.p0.i64(ptr noundef nonnull align 4 dereferenceable(28) %4, ptr noundef nonnull align 4 dereferenceable(28) %3, i64 28, i1 false), !tbaa.struct !74
  call void @llvm.lifetime.end.p0(i64 28, ptr nonnull %3) #16
  ret void
}